; Function Attrs: nounwind uwtable
define internal range(i32 -2147483648, 1) i32 @query_formats(ptr noundef %0, ptr noundef %1, ptr noundef %2) #1 {
  %4 = tail call i32 @ff_set_common_formats_from_list2(ptr noundef %0, ptr noundef %1, ptr noundef %2, ptr noundef nonnull @query_formats.formats) #5
  %5 = icmp slt i32 %4, 0
  br i1 %5, label %8, label %6

6:                                                ; preds = %3
  %7 = tail call i32 @ff_set_common_channel_layouts_from_list2(ptr noundef %0, ptr noundef %1, ptr noundef %2, ptr noundef nonnull @query_formats.layouts) #5
  %. = tail call i32 @llvm.smin.i32(i32 %7, i32 0)
  br label %8

8:                                                ; preds = %6, %3
  %.0 = phi i32 [ %4, %3 ], [ %., %6 ]
  ret i32 %.0
}